target datalayout = "e-m:e-p270:32:32-p271:32:32-p272:64:64-i64:64-i128:128-f80:128-n8:16:32:64-S128"
target triple = "x86_64-pc-linux-gnu"

%struct.H5O_copy_t = type { i8, i8, i8, i8, i8, i8, i8, ptr, i32, i32, ptr, ptr, i8, ptr, ptr, ptr, ptr, ptr, i64 }

; Function Attrs: nounwind uwtable
define internal i32 @H5O__link_pre_copy_file(ptr noundef %0, ptr noundef %1, ptr noundef %2, ptr noundef %3, ptr noundef %4) #0 {
  %6 = alloca ptr, align 8
  %7 = alloca ptr, align 8
  %8 = alloca ptr, align 8
  %9 = alloca ptr, align 8
  %10 = alloca ptr, align 8
  store ptr %0, ptr %6, align 8
  store ptr %1, ptr %7, align 8
  store ptr %2, ptr %8, align 8
  store ptr %3, ptr %9, align 8
  store ptr %4, ptr %10, align 8
  %11 = load ptr, ptr %9, align 8
  %12 = getelementptr inbounds %struct.H5O_copy_t, ptr %11, i32 0, i32 9
  %13 = load i32, ptr %12, align 4
  %14 = icmp sge i32 %13, 0
  br i1 %14, label %15, label %25

15:                                               ; preds = %5
  %16 = load ptr, ptr %9, align 8
  %17 = getelementptr inbounds %struct.H5O_copy_t, ptr %16, i32 0, i32 8
  %18 = load i32, ptr %17, align 8
  %19 = load ptr, ptr %9, align 8
  %20 = getelementptr inbounds %struct.H5O_copy_t, ptr %19, i32 0, i32 9
  %21 = load i32, ptr %20, align 4
  %22 = icmp sge i32 %18, %21
  br i1 %22, label %23, label %25

23:                                               ; preds = %15
  %24 = load ptr, ptr %8, align 8
  store i8 1, ptr %24, align 1
  br label %25

25:                                               ; preds = %23, %15, %5
  ret i32 0
}