; Function Attrs: mustprogress nofree norecurse nosync nounwind willreturn memory(argmem: readwrite) uwtable
define internal noundef i32 @H5O__link_pre_copy_file(ptr nocapture readnone %0, ptr nocapture readnone %1, ptr nocapture noundef writeonly %2, ptr nocapture noundef readonly %3, ptr nocapture readnone %4) #1 {
  %6 = getelementptr inbounds i8, ptr %3, i64 20
  %7 = load i32, ptr %6, align 4
  %8 = icmp sgt i32 %7, -1
  br i1 %8, label %9, label %13

9:                                                ; preds = %5
  %10 = getelementptr inbounds i8, ptr %3, i64 16
  %11 = load i32, ptr %10, align 8
  %.not = icmp slt i32 %11, %7
  br i1 %.not, label %13, label %12

12:                                               ; preds = %9
  store i8 1, ptr %2, align 1
  br label %13

13:                                               ; preds = %12, %9, %5
  ret i32 0
}